target datalayout = "e-m:e-p270:32:32-p271:32:32-p272:64:64-i64:64-i128:128-f80:128-n8:16:32:64-S128"
target triple = "x86_64-pc-linux-gnu"

@.str.3 = private unnamed_addr constant [2 x i8] c"\0A\00", align 1
@.str.4 = private unnamed_addr constant [62 x i8] c"    opt_dff [-nodffe] [-nosdff] [-keepdc] [-sat] [selection]\0A\00", align 1
@.str.5 = private unnamed_addr constant [80 x i8] c"This pass converts flip-flops to a more suitable type by merging clock enables\0A\00", align 1
@.str.6 = private unnamed_addr constant [72 x i8] c"and synchronous reset multiplexers, removing unused control inputs, or\0A\00", align 1
@.str.7 = private unnamed_addr constant [75 x i8] c"potentially removes the flip-flop altogether, converting it to a constant\0A\00", align 1
@.str.8 = private unnamed_addr constant [9 x i8] c"driver.\0A\00", align 1
@.str.9 = private unnamed_addr constant [13 x i8] c"    -nodffe\0A\00", align 1
@.str.10 = private unnamed_addr constant [81 x i8] c"        disables dff -> dffe conversion, and other transforms recognizing clock\0A\00", align 1
@.str.11 = private unnamed_addr constant [16 x i8] c"        enable\0A\00", align 1
@.str.12 = private unnamed_addr constant [13 x i8] c"    -nosdff\0A\00", align 1
@.str.13 = private unnamed_addr constant [80 x i8] c"        disables dff -> sdff conversion, and other transforms recognizing sync\0A\00", align 1
@.str.14 = private unnamed_addr constant [16 x i8] c"        resets\0A\00", align 1
@.str.15 = private unnamed_addr constant [18 x i8] c"    -simple-dffe\0A\00", align 1
@.str.16 = private unnamed_addr constant [75 x i8] c"        only enables clock enable recognition transform for obvious cases\0A\00", align 1
@.str.17 = private unnamed_addr constant [10 x i8] c"    -sat\0A\00", align 1
@.str.18 = private unnamed_addr constant [78 x i8] c"        additionally invoke SAT solver to detect and remove flip-flops (with\0A\00", align 1
@.str.19 = private unnamed_addr constant [79 x i8] c"        non-constant inputs) that can also be replaced with a constant driver\0A\00", align 1
@.str.20 = private unnamed_addr constant [13 x i8] c"    -keepdc\0A\00", align 1
@.str.21 = private unnamed_addr constant [79 x i8] c"        some optimizations change the behavior of the circuit with respect to\0A\00", align 1
@.str.22 = private unnamed_addr constant [80 x i8] c"        don't-care bits. for example in 'a+0' a single x-bit in 'a' will cause\0A\00", align 1
@.str.23 = private unnamed_addr constant [77 x i8] c"        all result bits to be set to x. this behavior changes when 'a+0' is\0A\00", align 1
@.str.24 = private unnamed_addr constant [78 x i8] c"        replaced by 'a'. the -keepdc option disables all such optimizations.\0A\00", align 1

; Function Attrs: mustprogress uwtable
define internal void @_ZN12_GLOBAL__N_110OptDffPass4helpEv(ptr noundef nonnull align 8 dereferenceable(104) %0) unnamed_addr #4 align 2 {
  %2 = alloca ptr, align 8
  store ptr %0, ptr %2, align 8
  call void (ptr, ...) @_ZN5Yosys3logEPKcz(ptr noundef @.str.3)
  call void (ptr, ...) @_ZN5Yosys3logEPKcz(ptr noundef @.str.4)
  call void (ptr, ...) @_ZN5Yosys3logEPKcz(ptr noundef @.str.3)
  call void (ptr, ...) @_ZN5Yosys3logEPKcz(ptr noundef @.str.5)
  call void (ptr, ...) @_ZN5Yosys3logEPKcz(ptr noundef @.str.6)
  call void (ptr, ...) @_ZN5Yosys3logEPKcz(ptr noundef @.str.7)
  call void (ptr, ...) @_ZN5Yosys3logEPKcz(ptr noundef @.str.8)
  call void (ptr, ...) @_ZN5Yosys3logEPKcz(ptr noundef @.str.3)
  call void (ptr, ...) @_ZN5Yosys3logEPKcz(ptr noundef @.str.9)
  call void (ptr, ...) @_ZN5Yosys3logEPKcz(ptr noundef @.str.10)
  call void (ptr, ...) @_ZN5Yosys3logEPKcz(ptr noundef @.str.11)
  call void (ptr, ...) @_ZN5Yosys3logEPKcz(ptr noundef @.str.3)
  call void (ptr, ...) @_ZN5Yosys3logEPKcz(ptr noundef @.str.12)
  call void (ptr, ...) @_ZN5Yosys3logEPKcz(ptr noundef @.str.13)
  call void (ptr, ...) @_ZN5Yosys3logEPKcz(ptr noundef @.str.14)
  call void (ptr, ...) @_ZN5Yosys3logEPKcz(ptr noundef @.str.3)
  call void (ptr, ...) @_ZN5Yosys3logEPKcz(ptr noundef @.str.15)
  call void (ptr, ...) @_ZN5Yosys3logEPKcz(ptr noundef @.str.16)
  call void (ptr, ...) @_ZN5Yosys3logEPKcz(ptr noundef @.str.3)
  call void (ptr, ...) @_ZN5Yosys3logEPKcz(ptr noundef @.str.17)
  call void (ptr, ...) @_ZN5Yosys3logEPKcz(ptr noundef @.str.18)
  call void (ptr, ...) @_ZN5Yosys3logEPKcz(ptr noundef @.str.19)
  call void (ptr, ...) @_ZN5Yosys3logEPKcz(ptr noundef @.str.3)
  call void (ptr, ...) @_ZN5Yosys3logEPKcz(ptr noundef @.str.20)
  call void (ptr, ...) @_ZN5Yosys3logEPKcz(ptr noundef @.str.21)
  call void (ptr, ...) @_ZN5Yosys3logEPKcz(ptr noundef @.str.22)
  call void (ptr, ...) @_ZN5Yosys3logEPKcz(ptr noundef @.str.23)
  call void (ptr, ...) @_ZN5Yosys3logEPKcz(ptr noundef @.str.24)
  call void (ptr, ...) @_ZN5Yosys3logEPKcz(ptr noundef @.str.3)
  ret void
}